; ModuleID = 'source-C-CXX/25/99.cpp'
source_filename = "source-C-CXX/25/99.cpp"
target datalayout = "e-m:e-p270:32:32-p271:32:32-p272:64:64-i64:64-f80:128-n8:16:32:64-S128"
target triple = "x86_64-pc-linux-gnu"

%"class.std::ios_base::Init" = type { i8 }
%"class.std::basic_istream" = type { i32 (...)**, i64, %"class.std::basic_ios" }
%"class.std::basic_ios" = type { %"class.std::ios_base", %"class.std::basic_ostream"*, i8, i8, %"class.std::basic_streambuf"*, %"class.std::ctype"*, %"class.std::num_put"*, %"class.std::num_get"* }
%"class.std::ios_base" = type { i32 (...)**, i64, i64, i32, i32, i32, %"struct.std::ios_base::_Callback_list"*, %"struct.std::ios_base::_Words", [8 x %"struct.std::ios_base::_Words"], i32, %"struct.std::ios_base::_Words"*, %"class.std::locale" }
%"struct.std::ios_base::_Callback_list" = type { %"struct.std::ios_base::_Callback_list"*, void (i32, %"class.std::ios_base"*, i32)*, i32, i32 }
%"struct.std::ios_base::_Words" = type { i8*, i64 }
%"class.std::locale" = type { %"class.std::locale::_Impl"* }
%"class.std::locale::_Impl" = type { i32, %"class.std::locale::facet"**, i64, %"class.std::locale::facet"**, i8** }
%"class.std::locale::facet" = type <{ i32 (...)**, i32, [4 x i8] }>
%"class.std::basic_ostream" = type { i32 (...)**, %"class.std::basic_ios" }
%"class.std::basic_streambuf" = type { i32 (...)**, i8*, i8*, i8*, i8*, i8*, i8*, %"class.std::locale" }
%"class.std::ctype" = type <{ %"class.std::locale::facet.base", [4 x i8], %struct.__locale_struct*, i8, [7 x i8], i32*, i32*, i16*, i8, [256 x i8], [256 x i8], i8, [6 x i8] }>
%"class.std::locale::facet.base" = type <{ i32 (...)**, i32 }>
%struct.__locale_struct = type { [13 x %struct.__locale_data*], i16*, i32*, i32*, [13 x i8*] }
%struct.__locale_data = type opaque
%"class.std::num_put" = type { %"class.std::locale::facet.base", [4 x i8] }
%"class.std::num_get" = type { %"class.std::locale::facet.base", [4 x i8] }

@_ZStL8__ioinit = internal global %"class.std::ios_base::Init" zeroinitializer, align 1
@__dso_handle = external hidden global i8
@_ZSt3cin = external global %"class.std::basic_istream", align 8
@_ZSt4cout = external global %"class.std::basic_ostream", align 8
@llvm.global_ctors = appending global [1 x { i32, void ()*, i8* }] [{ i32, void ()*, i8* } { i32 65535, void ()* @_GLOBAL__sub_I_99.cpp, i8* null }]

declare void @_ZNSt8ios_base4InitC1Ev(%"class.std::ios_base::Init"* nonnull align 1 dereferenceable(1)) unnamed_addr #0

; Function Attrs: nounwind
declare void @_ZNSt8ios_base4InitD1Ev(%"class.std::ios_base::Init"* nonnull align 1 dereferenceable(1)) unnamed_addr #1

; Function Attrs: nofree nounwind
declare i32 @__cxa_atexit(void (i8*)*, i8*, i8*) local_unnamed_addr #2

; Function Attrs: mustprogress norecurse sspstrong uwtable
define dso_local i32 @main() local_unnamed_addr #3 {
  %1 = alloca [100 x i8], align 16
  %2 = getelementptr inbounds [100 x i8], [100 x i8]* %1, i64 0, i64 0
  call void @llvm.lifetime.start.p0i8(i64 100, i8* nonnull %2) #8
  %3 = load i8*, i8** bitcast (%"class.std::basic_istream"* @_ZSt3cin to i8**), align 8, !tbaa !5
  %4 = getelementptr i8, i8* %3, i64 -24
  %5 = bitcast i8* %4 to i64*
  %6 = load i64, i64* %5, align 8
  %7 = add nsw i64 %6, 240
  %8 = getelementptr inbounds i8, i8* bitcast (%"class.std::basic_istream"* @_ZSt3cin to i8*), i64 %7
  %9 = bitcast i8* %8 to %"class.std::ctype"**
  %10 = load %"class.std::ctype"*, %"class.std::ctype"** %9, align 8, !tbaa !8
  %11 = icmp eq %"class.std::ctype"* %10, null
  br i1 %11, label %12, label %13

12:                                               ; preds = %0
  tail call void @_ZSt16__throw_bad_castv() #9
  unreachable

13:                                               ; preds = %0
  %14 = getelementptr inbounds %"class.std::ctype", %"class.std::ctype"* %10, i64 0, i32 8
  %15 = load i8, i8* %14, align 8, !tbaa !13
  %16 = icmp eq i8 %15, 0
  br i1 %16, label %20, label %17

17:                                               ; preds = %13
  %18 = getelementptr inbounds %"class.std::ctype", %"class.std::ctype"* %10, i64 0, i32 9, i64 10
  %19 = load i8, i8* %18, align 1, !tbaa !15
  br label %26

20:                                               ; preds = %13
  tail call void @_ZNKSt5ctypeIcE13_M_widen_initEv(%"class.std::ctype"* nonnull align 8 dereferenceable(570) %10)
  %21 = bitcast %"class.std::ctype"* %10 to i8 (%"class.std::ctype"*, i8)***
  %22 = load i8 (%"class.std::ctype"*, i8)**, i8 (%"class.std::ctype"*, i8)*** %21, align 8, !tbaa !5
  %23 = getelementptr inbounds i8 (%"class.std::ctype"*, i8)*, i8 (%"class.std::ctype"*, i8)** %22, i64 6
  %24 = load i8 (%"class.std::ctype"*, i8)*, i8 (%"class.std::ctype"*, i8)** %23, align 8
  %25 = tail call signext i8 %24(%"class.std::ctype"* nonnull align 8 dereferenceable(570) %10, i8 signext 10)
  br label %26

26:                                               ; preds = %17, %20
  %27 = phi i8 [ %19, %17 ], [ %25, %20 ]
  %28 = call nonnull align 8 dereferenceable(16) %"class.std::basic_istream"* @_ZNSi7getlineEPclc(%"class.std::basic_istream"* nonnull align 8 dereferenceable(16) @_ZSt3cin, i8* nonnull %2, i64 101, i8 signext %27)
  br label %31

29:                                               ; preds = %31
  %30 = icmp slt i32 %38, 0
  br i1 %30, label %161, label %41

31:                                               ; preds = %164, %26
  %32 = phi i64 [ 0, %26 ], [ %182, %164 ]
  %33 = phi i32 [ undef, %26 ], [ %181, %164 ]
  %34 = getelementptr inbounds [100 x i8], [100 x i8]* %1, i64 0, i64 %32
  %35 = load i8, i8* %34, align 4, !tbaa !15
  %36 = icmp eq i8 %35, 0
  %37 = trunc i64 %32 to i32
  %38 = select i1 %36, i32 %37, i32 %33
  %39 = or i64 %32, 1
  %40 = icmp eq i64 %39, 101
  br i1 %40, label %29, label %164, !llvm.loop !16

41:                                               ; preds = %29, %156
  %42 = phi i32 [ %159, %156 ], [ 0, %29 ]
  %43 = phi i32 [ %157, %156 ], [ %38, %29 ]
  %44 = sext i32 %42 to i64
  %45 = getelementptr inbounds [100 x i8], [100 x i8]* %1, i64 0, i64 %44
  %46 = load i8, i8* %45, align 1, !tbaa !15
  %47 = icmp eq i8 %46, 32
  br i1 %47, label %48, label %156

48:                                               ; preds = %41
  %49 = add nsw i32 %42, 1
  %50 = sext i32 %49 to i64
  %51 = getelementptr inbounds [100 x i8], [100 x i8]* %1, i64 0, i64 %50
  %52 = load i8, i8* %51, align 1, !tbaa !15
  %53 = icmp eq i8 %52, 32
  br i1 %53, label %54, label %156

54:                                               ; preds = %48
  %55 = icmp slt i32 %42, %43
  br i1 %55, label %56, label %153

56:                                               ; preds = %54
  %57 = sext i32 %43 to i64
  %58 = sub nsw i64 %57, %44
  %59 = icmp ult i64 %58, 8
  br i1 %59, label %144, label %60

60:                                               ; preds = %56
  %61 = icmp ult i64 %58, 32
  br i1 %61, label %124, label %62

62:                                               ; preds = %60
  %63 = and i64 %58, -32
  %64 = add nsw i64 %63, -32
  %65 = lshr exact i64 %64, 5
  %66 = add nuw nsw i64 %65, 1
  %67 = and i64 %66, 1
  %68 = icmp eq i64 %64, 0
  br i1 %68, label %102, label %69

69:                                               ; preds = %62
  %70 = and i64 %66, 1152921504606846974
  br label %71

71:                                               ; preds = %71, %69
  %72 = phi i64 [ 0, %69 ], [ %99, %71 ]
  %73 = phi i64 [ %70, %69 ], [ %100, %71 ]
  %74 = add i64 %72, %44
  %75 = add nsw i64 %74, 1
  %76 = getelementptr inbounds [100 x i8], [100 x i8]* %1, i64 0, i64 %75
  %77 = bitcast i8* %76 to <16 x i8>*
  %78 = load <16 x i8>, <16 x i8>* %77, align 1, !tbaa !15
  %79 = getelementptr inbounds i8, i8* %76, i64 16
  %80 = bitcast i8* %79 to <16 x i8>*
  %81 = load <16 x i8>, <16 x i8>* %80, align 1, !tbaa !15
  %82 = getelementptr inbounds [100 x i8], [100 x i8]* %1, i64 0, i64 %74
  %83 = bitcast i8* %82 to <16 x i8>*
  store <16 x i8> %78, <16 x i8>* %83, align 1, !tbaa !15
  %84 = getelementptr inbounds i8, i8* %82, i64 16
  %85 = bitcast i8* %84 to <16 x i8>*
  store <16 x i8> %81, <16 x i8>* %85, align 1, !tbaa !15
  %86 = or i64 %72, 32
  %87 = add i64 %86, %44
  %88 = add nsw i64 %87, 1
  %89 = getelementptr inbounds [100 x i8], [100 x i8]* %1, i64 0, i64 %88
  %90 = bitcast i8* %89 to <16 x i8>*
  %91 = load <16 x i8>, <16 x i8>* %90, align 1, !tbaa !15
  %92 = getelementptr inbounds i8, i8* %89, i64 16
  %93 = bitcast i8* %92 to <16 x i8>*
  %94 = load <16 x i8>, <16 x i8>* %93, align 1, !tbaa !15
  %95 = getelementptr inbounds [100 x i8], [100 x i8]* %1, i64 0, i64 %87
  %96 = bitcast i8* %95 to <16 x i8>*
  store <16 x i8> %91, <16 x i8>* %96, align 1, !tbaa !15
  %97 = getelementptr inbounds i8, i8* %95, i64 16
  %98 = bitcast i8* %97 to <16 x i8>*
  store <16 x i8> %94, <16 x i8>* %98, align 1, !tbaa !15
  %99 = add nuw i64 %72, 64
  %100 = add i64 %73, -2
  %101 = icmp eq i64 %100, 0
  br i1 %101, label %102, label %71, !llvm.loop !18

102:                                              ; preds = %71, %62
  %103 = phi i64 [ 0, %62 ], [ %99, %71 ]
  %104 = icmp eq i64 %67, 0
  br i1 %104, label %118, label %105

105:                                              ; preds = %102
  %106 = add i64 %103, %44
  %107 = add nsw i64 %106, 1
  %108 = getelementptr inbounds [100 x i8], [100 x i8]* %1, i64 0, i64 %107
  %109 = bitcast i8* %108 to <16 x i8>*
  %110 = load <16 x i8>, <16 x i8>* %109, align 1, !tbaa !15
  %111 = getelementptr inbounds i8, i8* %108, i64 16
  %112 = bitcast i8* %111 to <16 x i8>*
  %113 = load <16 x i8>, <16 x i8>* %112, align 1, !tbaa !15
  %114 = getelementptr inbounds [100 x i8], [100 x i8]* %1, i64 0, i64 %106
  %115 = bitcast i8* %114 to <16 x i8>*
  store <16 x i8> %110, <16 x i8>* %115, align 1, !tbaa !15
  %116 = getelementptr inbounds i8, i8* %114, i64 16
  %117 = bitcast i8* %116 to <16 x i8>*
  store <16 x i8> %113, <16 x i8>* %117, align 1, !tbaa !15
  br label %118

118:                                              ; preds = %102, %105
  %119 = icmp eq i64 %58, %63
  br i1 %119, label %153, label %120

120:                                              ; preds = %118
  %121 = add nsw i64 %63, %44
  %122 = and i64 %58, 24
  %123 = icmp eq i64 %122, 0
  br i1 %123, label %144, label %124

124:                                              ; preds = %60, %120
  %125 = phi i64 [ %63, %120 ], [ 0, %60 ]
  %126 = sext i32 %43 to i64
  %127 = sext i32 %42 to i64
  %128 = sub nsw i64 %126, %127
  %129 = and i64 %128, -8
  %130 = add nsw i64 %129, %44
  br label %131

131:                                              ; preds = %131, %124
  %132 = phi i64 [ %125, %124 ], [ %140, %131 ]
  %133 = add i64 %132, %44
  %134 = add nsw i64 %133, 1
  %135 = getelementptr inbounds [100 x i8], [100 x i8]* %1, i64 0, i64 %134
  %136 = bitcast i8* %135 to <8 x i8>*
  %137 = load <8 x i8>, <8 x i8>* %136, align 1, !tbaa !15
  %138 = getelementptr inbounds [100 x i8], [100 x i8]* %1, i64 0, i64 %133
  %139 = bitcast i8* %138 to <8 x i8>*
  store <8 x i8> %137, <8 x i8>* %139, align 1, !tbaa !15
  %140 = add nuw i64 %132, 8
  %141 = icmp eq i64 %140, %129
  br i1 %141, label %142, label %131, !llvm.loop !20

142:                                              ; preds = %131
  %143 = icmp eq i64 %128, %129
  br i1 %143, label %153, label %144

144:                                              ; preds = %56, %120, %142
  %145 = phi i64 [ %44, %56 ], [ %121, %120 ], [ %130, %142 ]
  br label %146

146:                                              ; preds = %144, %146
  %147 = phi i64 [ %148, %146 ], [ %145, %144 ]
  %148 = add nsw i64 %147, 1
  %149 = getelementptr inbounds [100 x i8], [100 x i8]* %1, i64 0, i64 %148
  %150 = load i8, i8* %149, align 1, !tbaa !15
  %151 = getelementptr inbounds [100 x i8], [100 x i8]* %1, i64 0, i64 %147
  store i8 %150, i8* %151, align 1, !tbaa !15
  %152 = icmp eq i64 %148, %57
  br i1 %152, label %153, label %146, !llvm.loop !21

153:                                              ; preds = %146, %118, %142, %54
  %154 = add nsw i32 %43, -1
  %155 = add nsw i32 %42, -1
  br label %156

156:                                              ; preds = %41, %48, %153
  %157 = phi i32 [ %154, %153 ], [ %43, %48 ], [ %43, %41 ]
  %158 = phi i32 [ %155, %153 ], [ %42, %48 ], [ %42, %41 ]
  %159 = add nsw i32 %158, 1
  %160 = icmp slt i32 %158, %157
  br i1 %160, label %41, label %161, !llvm.loop !23

161:                                              ; preds = %156, %29
  %162 = call i64 @strlen(i8* noundef nonnull dereferenceable(1) %2) #8
  %163 = call nonnull align 8 dereferenceable(8) %"class.std::basic_ostream"* @_ZSt16__ostream_insertIcSt11char_traitsIcEERSt13basic_ostreamIT_T0_ES6_PKS3_l(%"class.std::basic_ostream"* nonnull align 8 dereferenceable(8) @_ZSt4cout, i8* nonnull %2, i64 %162)
  call void @llvm.lifetime.end.p0i8(i64 100, i8* nonnull %2) #8
  ret i32 0

164:                                              ; preds = %31
  %165 = getelementptr inbounds [100 x i8], [100 x i8]* %1, i64 0, i64 %39
  %166 = load i8, i8* %165, align 1, !tbaa !15
  %167 = icmp eq i8 %166, 0
  %168 = trunc i64 %39 to i32
  %169 = select i1 %167, i32 %168, i32 %38
  %170 = or i64 %32, 2
  %171 = getelementptr inbounds [100 x i8], [100 x i8]* %1, i64 0, i64 %170
  %172 = load i8, i8* %171, align 2, !tbaa !15
  %173 = icmp eq i8 %172, 0
  %174 = trunc i64 %170 to i32
  %175 = select i1 %173, i32 %174, i32 %169
  %176 = or i64 %32, 3
  %177 = getelementptr inbounds [100 x i8], [100 x i8]* %1, i64 0, i64 %176
  %178 = load i8, i8* %177, align 1, !tbaa !15
  %179 = icmp eq i8 %178, 0
  %180 = trunc i64 %176 to i32
  %181 = select i1 %179, i32 %180, i32 %175
  %182 = add nuw nsw i64 %32, 4
  br label %31
}

; Function Attrs: argmemonly mustprogress nofree nosync nounwind willreturn
declare void @llvm.lifetime.start.p0i8(i64 immarg, i8* nocapture) #4

; Function Attrs: argmemonly mustprogress nofree nosync nounwind willreturn
declare void @llvm.lifetime.end.p0i8(i64 immarg, i8* nocapture) #4

declare nonnull align 8 dereferenceable(16) %"class.std::basic_istream"* @_ZNSi7getlineEPclc(%"class.std::basic_istream"* nonnull align 8 dereferenceable(16), i8*, i64, i8 signext) local_unnamed_addr #0

; Function Attrs: noreturn
declare void @_ZSt16__throw_bad_castv() local_unnamed_addr #5

declare void @_ZNKSt5ctypeIcE13_M_widen_initEv(%"class.std::ctype"* nonnull align 8 dereferenceable(570)) local_unnamed_addr #0

declare nonnull align 8 dereferenceable(8) %"class.std::basic_ostream"* @_ZSt16__ostream_insertIcSt11char_traitsIcEERSt13basic_ostreamIT_T0_ES6_PKS3_l(%"class.std::basic_ostream"* nonnull align 8 dereferenceable(8), i8*, i64) local_unnamed_addr #0

; Function Attrs: argmemonly mustprogress nofree nounwind readonly willreturn
declare i64 @strlen(i8* nocapture) local_unnamed_addr #6

; Function Attrs: sspstrong uwtable
define internal void @_GLOBAL__sub_I_99.cpp() #7 section ".text.startup" {
  tail call void @_ZNSt8ios_base4InitC1Ev(%"class.std::ios_base::Init"* nonnull align 1 dereferenceable(1) @_ZStL8__ioinit)
  %1 = tail call i32 @__cxa_atexit(void (i8*)* bitcast (void (%"class.std::ios_base::Init"*)* @_ZNSt8ios_base4InitD1Ev to void (i8*)*), i8* getelementptr inbounds (%"class.std::ios_base::Init", %"class.std::ios_base::Init"* @_ZStL8__ioinit, i64 0, i32 0), i8* nonnull @__dso_handle) #8
  ret void
}


!llvm.module.flags = !{!0, !1, !2, !3}
!llvm.ident = !{!4}

!0 = !{i32 1, !"wchar_size", i32 4}
!1 = !{i32 7, !"PIC Level", i32 2}
!2 = !{i32 7, !"PIE Level", i32 2}
!3 = !{i32 7, !"uwtable", i32 1}
!4 = !{!"clang version 13.0.0"}
!5 = !{!6, !6, i64 0}
!6 = !{!"vtable pointer", !7, i64 0}
!7 = !{!"Simple C++ TBAA"}
!8 = !{!9, !10, i64 240}
!9 = !{!"_ZTSSt9basic_iosIcSt11char_traitsIcEE", !10, i64 216, !11, i64 224, !12, i64 225, !10, i64 232, !10, i64 240, !10, i64 248, !10, i64 256}
!10 = !{!"any pointer", !11, i64 0}
!11 = !{!"omnipotent char", !7, i64 0}
!12 = !{!"bool", !11, i64 0}
!13 = !{!14, !11, i64 56}
!14 = !{!"_ZTSSt5ctypeIcE", !10, i64 16, !12, i64 24, !10, i64 32, !10, i64 40, !10, i64 48, !11, i64 56, !11, i64 57, !11, i64 313, !11, i64 569}
!15 = !{!11, !11, i64 0}
!16 = distinct !{!16, !17}
!17 = !{!"llvm.loop.mustprogress"}
!18 = distinct !{!18, !17, !19}
!19 = !{!"llvm.loop.isvectorized", i32 1}
!20 = distinct !{!20, !17, !19}
!21 = distinct !{!21, !17, !22, !19}
!22 = !{!"llvm.loop.unroll.runtime.disable"}
!23 = distinct !{!23, !17}
